; Function Attrs: mustprogress uwtable
define void @_ZN7Imf_3_46Header13setChunkCountEi(ptr noundef nonnull align 8 dereferenceable(49) %0, i32 noundef %1) local_unnamed_addr #5 align 2 personality ptr @__gxx_personality_v0 {
  %3 = alloca i32, align 4
  %4 = alloca %"class.Imf_3_4::TypedAttribute.17", align 8
  store i32 %1, ptr %3, align 4, !tbaa !67
  call void @llvm.lifetime.start.p0(i64 16, ptr nonnull %4) #29
  call void @_ZN7Imf_3_414TypedAttributeIiEC1ERKi(ptr noundef nonnull align 8 dereferenceable(12) %4, ptr noundef nonnull align 4 dereferenceable(4) %3)
  invoke void @_ZN7Imf_3_46Header6insertEPKcRKNS_9AttributeE(ptr noundef nonnull align 8 dereferenceable(49) %0, ptr noundef nonnull @.str.34, ptr noundef nonnull align 8 dereferenceable(8) %4)
          to label %5 unwind label %6

5:                                                ; preds = %2
  call void @_ZN7Imf_3_414TypedAttributeIiED1Ev(ptr noundef nonnull align 8 dereferenceable(12) %4) #29
  call void @llvm.lifetime.end.p0(i64 16, ptr nonnull %4) #29
  ret void

6:                                                ; preds = %2
  %7 = landingpad { ptr, i32 }
          cleanup
  call void @_ZN7Imf_3_414TypedAttributeIiED1Ev(ptr noundef nonnull align 8 dereferenceable(12) %4) #29
  call void @llvm.lifetime.end.p0(i64 16, ptr nonnull %4) #29
  resume { ptr, i32 } %7
}